(dp1
S'length'
p2
(lp3
F0.054195164499414195
aF0.23497755602309023
aF0.12574690889359449
aF0.11915186703758658
aF0.14830533625128176
aF0.12625446071522459
aF0.011305940684389894
aF0.12231897716157759
aF0.14344007288013169
aF0.13097521480367194
aF0.021972223190437463
aF0.063709355947996718
aF0.2888399924435982
aF0.22220373011469002
aF0.05143632337398716
aF0.062539006556730461
aF0.29494550806572023
aF0.24366508722672245
aF0.048814425533369038
as.